ARM GAS  C:\Users\ajs5433\AppData\Local\Temp\ccpvKee3.s 			page 1


   1              		.syntax unified
   2              		.cpu cortex-m3
   3              		.fpu softvfp
   4              		.eabi_attribute 20, 1
   5              		.eabi_attribute 21, 1
   6              		.eabi_attribute 23, 3
   7              		.eabi_attribute 24, 1
   8              		.eabi_attribute 25, 1
   9              		.eabi_attribute 26, 1
  10              		.eabi_attribute 30, 6
  11              		.eabi_attribute 34, 1
  12              		.eabi_attribute 18, 4
  13              		.thumb
  14              		.file	"main.c"
  15              		.text
  16              	.Ltext0:
  17              		.cfi_sections	.debug_frame
  18              		.comm	InterruptCnt,1,1
  19              		.global	echo
  20              		.bss
  21              		.align	2
  22              		.type	echo, %object
  23              		.size	echo, 4
  24              	echo:
  25 0000 00000000 		.space	4
  26              		.global	min
  27              		.data
  28              		.align	2
  29              		.type	min, %object
  30              		.size	min, 4
  31              	min:
  32 0000 FFFFFFFF 		.word	-1
  33              		.global	max
  34              		.bss
  35              		.align	2
  36              		.type	max, %object
  37              		.size	max, 4
  38              	max:
  39 0004 00000000 		.space	4
  40              		.section	.text.start_echo_IRR_Interrupt,"ax",%progbits
  41              		.align	2
  42              		.global	start_echo_IRR_Interrupt
  43              		.thumb
  44              		.thumb_func
  45              		.type	start_echo_IRR_Interrupt, %function
  46              	start_echo_IRR_Interrupt:
  47              	.LFB56:
  48              		.file 1 ".\\main.c"
   1:.\main.c      **** /********************************************************************************
   2:.\main.c      **** * File Name: main.c
   3:.\main.c      **** *
   4:.\main.c      **** * Version : 1.00
   5:.\main.c      **** *
   6:.\main.c      **** * Description: 
   7:.\main.c      **** *  This is a source code for example project of 16 bit Timer UDB Block.
   8:.\main.c      **** *
   9:.\main.c      **** * Test Result:
ARM GAS  C:\Users\ajs5433\AppData\Local\Temp\ccpvKee3.s 			page 2


  10:.\main.c      **** *  Watch capture output on P0_0, tc output on P0_1, and Period, Compare and 
  11:.\main.c      **** *  Count value on LCD.
  12:.\main.c      **** *
  13:.\main.c      **** ********************************************************************************
  14:.\main.c      **** * Copyright 2012, Cypress Semiconductor Corporation. All rights reserved.
  15:.\main.c      **** * This software is owned by Cypress Semiconductor Corporation and is protected
  16:.\main.c      **** * by and subject to worldwide patent and copyright laws and treaties.
  17:.\main.c      **** * Therefore, you may use this software only as provided in the license agreement
  18:.\main.c      **** * accompanying the software package from which you obtained this software.
  19:.\main.c      **** * CYPRESS AND ITS SUPPLIERS MAKE NO WARRANTY OF ANY KIND, EXPRESS OR IMPLIED,
  20:.\main.c      **** * WITH REGARD TO THIS SOFTWARE, INCLUDING, BUT NOT LIMITED TO, NONINFRINGEMENT,
  21:.\main.c      **** * IMPLIED WARRANTIES OF MERCHANTABILITY AND FITNESS FOR A PARTICULAR PURPOSE.
  22:.\main.c      **** *******************************************************************************/
  23:.\main.c      **** 
  24:.\main.c      **** #include <device.h>
  25:.\main.c      **** #include <end_echo_IRR.h>
  26:.\main.c      **** #include <Echo_Timer_ISR.h>
  27:.\main.c      **** #include <Echo_Timer.h>
  28:.\main.c      **** #include <start_echo_IRR.h>
  29:.\main.c      **** #include <stdio.h>
  30:.\main.c      **** #include <time.h>
  31:.\main.c      **** 
  32:.\main.c      **** 
  33:.\main.c      **** #define max_32b_int 4294967295u
  34:.\main.c      **** 
  35:.\main.c      **** 
  36:.\main.c      **** uint8 InterruptCnt;
  37:.\main.c      **** uint32 echo=0;
  38:.\main.c      **** uint32 min = max_32b_int; 
  39:.\main.c      **** uint32 max =0;
  40:.\main.c      **** 
  41:.\main.c      **** CY_ISR(start_echo_IRR_Interrupt)
  42:.\main.c      **** {
  49              		.loc 1 42 0
  50              		.cfi_startproc
  51              		@ args = 0, pretend = 0, frame = 0
  52              		@ frame_needed = 1, uses_anonymous_args = 0
  53 0000 80B5     		push	{r7, lr}
  54              	.LCFI0:
  55              		.cfi_def_cfa_offset 8
  56              		.cfi_offset 7, -8
  57              		.cfi_offset 14, -4
  58 0002 00AF     		add	r7, sp, #0
  59              	.LCFI1:
  60              		.cfi_def_cfa_register 7
  43:.\main.c      ****     start_echo_IRR_ClearPending();
  61              		.loc 1 43 0
  62 0004 FFF7FEFF 		bl	start_echo_IRR_ClearPending
  44:.\main.c      ****     
  45:.\main.c      ****     Echo_Timer_Stop();
  63              		.loc 1 45 0
  64 0008 FFF7FEFF 		bl	Echo_Timer_Stop
  46:.\main.c      ****     Echo_Timer_Init();
  65              		.loc 1 46 0
  66 000c FFF7FEFF 		bl	Echo_Timer_Init
  47:.\main.c      ****     Echo_Timer_Start();
  67              		.loc 1 47 0
ARM GAS  C:\Users\ajs5433\AppData\Local\Temp\ccpvKee3.s 			page 3


  68 0010 FFF7FEFF 		bl	Echo_Timer_Start
  48:.\main.c      **** }
  69              		.loc 1 48 0
  70 0014 80BD     		pop	{r7, pc}
  71              		.cfi_endproc
  72              	.LFE56:
  73              		.size	start_echo_IRR_Interrupt, .-start_echo_IRR_Interrupt
  74 0016 00BF     		.section	.text.end_echo_IRR_Interrupt,"ax",%progbits
  75              		.align	2
  76              		.global	end_echo_IRR_Interrupt
  77              		.thumb
  78              		.thumb_func
  79              		.type	end_echo_IRR_Interrupt, %function
  80              	end_echo_IRR_Interrupt:
  81              	.LFB57:
  49:.\main.c      **** 
  50:.\main.c      **** 
  51:.\main.c      **** CY_ISR(end_echo_IRR_Interrupt)
  52:.\main.c      **** {
  82              		.loc 1 52 0
  83              		.cfi_startproc
  84              		@ args = 0, pretend = 0, frame = 0
  85              		@ frame_needed = 1, uses_anonymous_args = 0
  86 0000 80B5     		push	{r7, lr}
  87              	.LCFI2:
  88              		.cfi_def_cfa_offset 8
  89              		.cfi_offset 7, -8
  90              		.cfi_offset 14, -4
  91 0002 00AF     		add	r7, sp, #0
  92              	.LCFI3:
  93              		.cfi_def_cfa_register 7
  53:.\main.c      ****     end_echo_IRR_ClearPending();    
  94              		.loc 1 53 0
  95 0004 FFF7FEFF 		bl	end_echo_IRR_ClearPending
  54:.\main.c      ****     echo = Echo_Timer_ReadCounter();
  96              		.loc 1 54 0
  97 0008 FFF7FEFF 		bl	Echo_Timer_ReadCounter
  98 000c 0246     		mov	r2, r0
  99 000e 40F20003 		movw	r3, #:lower16:echo
 100 0012 C0F20003 		movt	r3, #:upper16:echo
 101 0016 1A60     		str	r2, [r3, #0]
  55:.\main.c      ****     
  56:.\main.c      ****     Echo_Timer_Stop();
 102              		.loc 1 56 0
 103 0018 FFF7FEFF 		bl	Echo_Timer_Stop
  57:.\main.c      **** }
 104              		.loc 1 57 0
 105 001c 80BD     		pop	{r7, pc}
 106              		.cfi_endproc
 107              	.LFE57:
 108              		.size	end_echo_IRR_Interrupt, .-end_echo_IRR_Interrupt
 109 001e 00BF     		.section	.rodata
 110              		.align	2
 111              	.LC0:
 112 0000 544D522D 		.ascii	"TMR-16\000"
 112      313600
 113 0007 00       		.section	.text.main,"ax",%progbits
ARM GAS  C:\Users\ajs5433\AppData\Local\Temp\ccpvKee3.s 			page 4


 114              		.align	2
 115              		.global	main
 116              		.thumb
 117              		.thumb_func
 118              		.type	main, %function
 119              	main:
 120              	.LFB58:
  58:.\main.c      **** 
  59:.\main.c      **** 
  60:.\main.c      **** 
  61:.\main.c      **** /*******************************************************************************
  62:.\main.c      **** * Function Name: main
  63:.\main.c      **** ********************************************************************************
  64:.\main.c      **** *
  65:.\main.c      **** * Summary:
  66:.\main.c      **** * Main function performs following functions:
  67:.\main.c      **** * 1: Enables the clock
  68:.\main.c      **** * 2: Start the Timer
  69:.\main.c      **** * 3: Initializes the LCD
  70:.\main.c      **** * 4: Print Period, capture, counter value on LCD
  71:.\main.c      **** * 
  72:.\main.c      **** * Parameters:
  73:.\main.c      **** *  None.
  74:.\main.c      **** *
  75:.\main.c      **** * Return:
  76:.\main.c      **** *  None.
  77:.\main.c      **** *
  78:.\main.c      **** *******************************************************************************/
  79:.\main.c      **** int main()
  80:.\main.c      **** {   
 121              		.loc 1 80 0
 122              		.cfi_startproc
 123              		@ args = 0, pretend = 0, frame = 0
 124              		@ frame_needed = 1, uses_anonymous_args = 0
 125 0000 80B5     		push	{r7, lr}
 126              	.LCFI4:
 127              		.cfi_def_cfa_offset 8
 128              		.cfi_offset 7, -8
 129              		.cfi_offset 14, -4
 130 0002 00AF     		add	r7, sp, #0
 131              	.LCFI5:
 132              		.cfi_def_cfa_register 7
  81:.\main.c      ****     /* Enable the global interrupt */
  82:.\main.c      ****     CyGlobalIntEnable;
 133              		.loc 1 82 0
 134              	@ 82 ".\main.c" 1
 135 0004 62B6     		CPSIE   i
 136              	@ 0 "" 2
  83:.\main.c      ****     
  84:.\main.c      ****     /* 1 - Enable the Interrupt component connected to Timer interrupt */
  85:.\main.c      ****     /* 2 - Start the components */
  86:.\main.c      **** 
  87:.\main.c      ****     Trigger_Timer_Start();
 137              		.loc 1 87 0
 138              		.thumb
 139 0006 FFF7FEFF 		bl	Trigger_Timer_Start
  88:.\main.c      ****     
ARM GAS  C:\Users\ajs5433\AppData\Local\Temp\ccpvKee3.s 			page 5


  89:.\main.c      ****     start_echo_IRR_StartEx(start_echo_IRR_Interrupt);
 140              		.loc 1 89 0
 141 000a 40F20000 		movw	r0, #:lower16:start_echo_IRR_Interrupt
 142 000e C0F20000 		movt	r0, #:upper16:start_echo_IRR_Interrupt
 143 0012 FFF7FEFF 		bl	start_echo_IRR_StartEx
  90:.\main.c      ****     start_echo_IRR_Start();
 144              		.loc 1 90 0
 145 0016 FFF7FEFF 		bl	start_echo_IRR_Start
  91:.\main.c      ****     
  92:.\main.c      ****     end_echo_IRR_StartEx(end_echo_IRR_Interrupt);
 146              		.loc 1 92 0
 147 001a 40F20000 		movw	r0, #:lower16:end_echo_IRR_Interrupt
 148 001e C0F20000 		movt	r0, #:upper16:end_echo_IRR_Interrupt
 149 0022 FFF7FEFF 		bl	end_echo_IRR_StartEx
  93:.\main.c      ****     end_echo_IRR_Start();
 150              		.loc 1 93 0
 151 0026 FFF7FEFF 		bl	end_echo_IRR_Start
  94:.\main.c      ****     
  95:.\main.c      ****     //Echo_Timer_ISR_StartEx(Echo_Timer_ISR_Interrupt);
  96:.\main.c      ****     //Echo_Timer_ISR_Start();
  97:.\main.c      ****     
  98:.\main.c      ****     /* Display TMR-16 on LCD */
  99:.\main.c      ****     LCD_Start();
 152              		.loc 1 99 0
 153 002a FFF7FEFF 		bl	LCD_Start
 100:.\main.c      ****     LCD_Position(0u, 0u);
 154              		.loc 1 100 0
 155 002e 4FF00000 		mov	r0, #0
 156 0032 4FF00001 		mov	r1, #0
 157 0036 FFF7FEFF 		bl	LCD_Position
 101:.\main.c      ****     LCD_PrintString("TMR-16"); 
 158              		.loc 1 101 0
 159 003a 40F20000 		movw	r0, #:lower16:.LC0
 160 003e C0F20000 		movt	r0, #:upper16:.LC0
 161 0042 FFF7FEFF 		bl	LCD_PrintString
 162              	.L6:
 102:.\main.c      **** 
 103:.\main.c      ****     for(;;)
 104:.\main.c      ****     {
 105:.\main.c      ****         LCD_Position(0u, 0u);
 163              		.loc 1 105 0
 164 0046 4FF00000 		mov	r0, #0
 165 004a 4FF00001 		mov	r1, #0
 166 004e FFF7FEFF 		bl	LCD_Position
 106:.\main.c      ****         LCD_PrintInt16(echo/2u);
 167              		.loc 1 106 0
 168 0052 40F20003 		movw	r3, #:lower16:echo
 169 0056 C0F20003 		movt	r3, #:upper16:echo
 170 005a 1B68     		ldr	r3, [r3, #0]
 171 005c 4FEA5303 		lsr	r3, r3, #1
 172 0060 9BB2     		uxth	r3, r3
 173 0062 1846     		mov	r0, r3
 174 0064 FFF7FEFF 		bl	LCD_PrintInt16
 107:.\main.c      ****         
 108:.\main.c      ****         if (echo>max){
 175              		.loc 1 108 0
 176 0068 40F20003 		movw	r3, #:lower16:echo
ARM GAS  C:\Users\ajs5433\AppData\Local\Temp\ccpvKee3.s 			page 6


 177 006c C0F20003 		movt	r3, #:upper16:echo
 178 0070 1A68     		ldr	r2, [r3, #0]
 179 0072 40F20003 		movw	r3, #:lower16:max
 180 0076 C0F20003 		movt	r3, #:upper16:max
 181 007a 1B68     		ldr	r3, [r3, #0]
 182 007c 9A42     		cmp	r2, r3
 183 007e 1AD9     		bls	.L4
 109:.\main.c      ****             max = echo;
 184              		.loc 1 109 0
 185 0080 40F20003 		movw	r3, #:lower16:echo
 186 0084 C0F20003 		movt	r3, #:upper16:echo
 187 0088 1A68     		ldr	r2, [r3, #0]
 188 008a 40F20003 		movw	r3, #:lower16:max
 189 008e C0F20003 		movt	r3, #:upper16:max
 190 0092 1A60     		str	r2, [r3, #0]
 110:.\main.c      ****             LCD_Position(0u, 8u);
 191              		.loc 1 110 0
 192 0094 4FF00000 		mov	r0, #0
 193 0098 4FF00801 		mov	r1, #8
 194 009c FFF7FEFF 		bl	LCD_Position
 111:.\main.c      ****             //LCD_PrintString("MAX: ");
 112:.\main.c      ****             //LCD_Position(0u, 12u);
 113:.\main.c      ****             LCD_PrintInt16(max/2u);
 195              		.loc 1 113 0
 196 00a0 40F20003 		movw	r3, #:lower16:max
 197 00a4 C0F20003 		movt	r3, #:upper16:max
 198 00a8 1B68     		ldr	r3, [r3, #0]
 199 00aa 4FEA5303 		lsr	r3, r3, #1
 200 00ae 9BB2     		uxth	r3, r3
 201 00b0 1846     		mov	r0, r3
 202 00b2 FFF7FEFF 		bl	LCD_PrintInt16
 203              	.L4:
 114:.\main.c      ****             //LCD_PrintInt32(max);
 115:.\main.c      ****         }
 116:.\main.c      ****         if (echo<min){
 204              		.loc 1 116 0
 205 00b6 40F20003 		movw	r3, #:lower16:echo
 206 00ba C0F20003 		movt	r3, #:upper16:echo
 207 00be 1A68     		ldr	r2, [r3, #0]
 208 00c0 40F20003 		movw	r3, #:lower16:min
 209 00c4 C0F20003 		movt	r3, #:upper16:min
 210 00c8 1B68     		ldr	r3, [r3, #0]
 211 00ca 9A42     		cmp	r2, r3
 212 00cc 1AD2     		bcs	.L5
 117:.\main.c      ****             min = echo;
 213              		.loc 1 117 0
 214 00ce 40F20003 		movw	r3, #:lower16:echo
 215 00d2 C0F20003 		movt	r3, #:upper16:echo
 216 00d6 1A68     		ldr	r2, [r3, #0]
 217 00d8 40F20003 		movw	r3, #:lower16:min
 218 00dc C0F20003 		movt	r3, #:upper16:min
 219 00e0 1A60     		str	r2, [r3, #0]
 118:.\main.c      ****             LCD_Position(1u, 8u);
 220              		.loc 1 118 0
 221 00e2 4FF00100 		mov	r0, #1
 222 00e6 4FF00801 		mov	r1, #8
 223 00ea FFF7FEFF 		bl	LCD_Position
ARM GAS  C:\Users\ajs5433\AppData\Local\Temp\ccpvKee3.s 			page 7


 119:.\main.c      ****             //LCD_PrintString("MIN: ");
 120:.\main.c      ****             //LCD_Position(0u, 121u);
 121:.\main.c      ****             //LCD_PrintInt32(min);
 122:.\main.c      ****             LCD_PrintInt16(min/2u);
 224              		.loc 1 122 0
 225 00ee 40F20003 		movw	r3, #:lower16:min
 226 00f2 C0F20003 		movt	r3, #:upper16:min
 227 00f6 1B68     		ldr	r3, [r3, #0]
 228 00f8 4FEA5303 		lsr	r3, r3, #1
 229 00fc 9BB2     		uxth	r3, r3
 230 00fe 1846     		mov	r0, r3
 231 0100 FFF7FEFF 		bl	LCD_PrintInt16
 232              	.L5:
 123:.\main.c      ****         }
 124:.\main.c      **** 		CyDelay(100u);
 233              		.loc 1 124 0
 234 0104 4FF06400 		mov	r0, #100
 235 0108 FFF7FEFF 		bl	CyDelay
 125:.\main.c      ****     }
 236              		.loc 1 125 0
 237 010c 9BE7     		b	.L6
 238              		.cfi_endproc
 239              	.LFE58:
 240              		.size	main, .-main
 241 010e 00BF     		.text
 242              	.Letext0:
 243              		.file 2 "c:\\program files (x86)\\cypress\\psoc creator\\3.0\\psoc creator\\import\\gnu_cs\\arm\\4
 244              		.file 3 "./Generated_Source/PSoC5/cytypes.h"
 245              		.file 4 "./Generated_Source/PSoC5/core_cm3.h"